target datalayout = "e-m:e-p270:32:32-p271:32:32-p272:64:64-i64:64-i128:128-f80:128-n8:16:32:64-S128"
target triple = "x86_64-pc-linux-gnu"

%"class.cv::Mat" = type { i32, i32, i32, i32, ptr, ptr, ptr, ptr, ptr, ptr, %"struct.cv::MatSize", %"struct.cv::MatStep" }
%"struct.cv::MatSize" = type { ptr }
%"struct.cv::MatStep" = type { ptr, [2 x i64] }

; Function Attrs: inlinehint mustprogress nounwind uwtable
define linkonce_odr noundef nonnull align 4 dereferenceable(4) ptr @_ZSt3minIiERKT_S2_S2_(ptr noundef nonnull align 4 dereferenceable(4) %0, ptr noundef nonnull align 4 dereferenceable(4) %1) #6 comdat {
  %3 = alloca ptr, align 8
  %4 = alloca ptr, align 8
  %5 = alloca ptr, align 8
  store ptr %0, ptr %4, align 8, !tbaa !71
  store ptr %1, ptr %5, align 8, !tbaa !71
  %6 = load ptr, ptr %5, align 8, !tbaa !71
  %7 = load i32, ptr %6, align 4, !tbaa !26
  %8 = load ptr, ptr %4, align 8, !tbaa !71
  %9 = load i32, ptr %8, align 4, !tbaa !26
  %10 = icmp slt i32 %7, %9
  br i1 %10, label %11, label %13

11:                                               ; preds = %2
  %12 = load ptr, ptr %5, align 8, !tbaa !71
  store ptr %12, ptr %3, align 8
  br label %15

13:                                               ; preds = %2
  %14 = load ptr, ptr %4, align 8, !tbaa !71
  store ptr %14, ptr %3, align 8
  br label %15

15:                                               ; preds = %13, %11
  %16 = load ptr, ptr %3, align 8
  ret ptr %16
}

; Function Attrs: mustprogress uwtable
define hidden noundef i32 @_ZN2cv20updateContinuityFlagEiiPKiPKm(i32 noundef %0, i32 noundef %1, ptr noundef %2, ptr noundef %3) #1 {
  %5 = alloca i32, align 4
  %6 = alloca i32, align 4
  %7 = alloca i32, align 4
  %8 = alloca ptr, align 8
  %9 = alloca ptr, align 8
  %10 = alloca i32, align 4
  %11 = alloca i32, align 4
  %12 = alloca i64, align 8
  %13 = alloca i32, align 4
  %14 = alloca i32, align 4
  store i32 %0, ptr %6, align 4, !tbaa !26
  store i32 %1, ptr %7, align 4, !tbaa !26
  store ptr %2, ptr %8, align 8, !tbaa !71
  store ptr %3, ptr %9, align 8, !tbaa !27
  call void @llvm.lifetime.start.p0(i64 4, ptr %10) #7
  call void @llvm.lifetime.start.p0(i64 4, ptr %11) #7
  store i32 0, ptr %10, align 4, !tbaa !26
  br label %15

15:                                               ; preds = %28, %4
  %16 = load i32, ptr %10, align 4, !tbaa !26
  %17 = load i32, ptr %7, align 4, !tbaa !26
  %18 = icmp slt i32 %16, %17
  br i1 %18, label %19, label %31

19:                                               ; preds = %15
  %20 = load ptr, ptr %8, align 8, !tbaa !71
  %21 = load i32, ptr %10, align 4, !tbaa !26
  %22 = sext i32 %21 to i64
  %23 = getelementptr inbounds i32, ptr %20, i64 %22
  %24 = load i32, ptr %23, align 4, !tbaa !26
  %25 = icmp sgt i32 %24, 1
  br i1 %25, label %26, label %27

26:                                               ; preds = %19
  br label %31

27:                                               ; preds = %19
  br label %28

28:                                               ; preds = %27
  %29 = load i32, ptr %10, align 4, !tbaa !26
  %30 = add nsw i32 %29, 1
  store i32 %30, ptr %10, align 4, !tbaa !26
  br label %15, !llvm.loop !86

31:                                               ; preds = %26, %15
  call void @llvm.lifetime.start.p0(i64 8, ptr %12) #7
  %32 = load ptr, ptr %8, align 8, !tbaa !71
  call void @llvm.lifetime.start.p0(i64 4, ptr %13) #7
  %33 = load i32, ptr %7, align 4, !tbaa !26
  %34 = sub nsw i32 %33, 1
  store i32 %34, ptr %13, align 4, !tbaa !26
  %35 = call noundef nonnull align 4 dereferenceable(4) ptr @_ZSt3minIiERKT_S2_S2_(ptr noundef nonnull align 4 dereferenceable(4) %10, ptr noundef nonnull align 4 dereferenceable(4) %13)
  %36 = load i32, ptr %35, align 4, !tbaa !26
  %37 = sext i32 %36 to i64
  %38 = getelementptr inbounds i32, ptr %32, i64 %37
  %39 = load i32, ptr %38, align 4, !tbaa !26
  %40 = sext i32 %39 to i64
  %41 = load i32, ptr %6, align 4, !tbaa !26
  %42 = and i32 %41, 4088
  %43 = ashr i32 %42, 3
  %44 = add nsw i32 %43, 1
  %45 = sext i32 %44 to i64
  %46 = mul i64 %40, %45
  call void @llvm.lifetime.end.p0(i64 4, ptr %13) #7
  store i64 %46, ptr %12, align 8, !tbaa !31
  %47 = load i32, ptr %7, align 4, !tbaa !26
  %48 = sub nsw i32 %47, 1
  store i32 %48, ptr %11, align 4, !tbaa !26
  br label %49

49:                                               ; preds = %83, %31
  %50 = load i32, ptr %11, align 4, !tbaa !26
  %51 = load i32, ptr %10, align 4, !tbaa !26
  %52 = icmp sgt i32 %50, %51
  br i1 %52, label %53, label %86

53:                                               ; preds = %49
  %54 = load ptr, ptr %8, align 8, !tbaa !71
  %55 = load i32, ptr %11, align 4, !tbaa !26
  %56 = sext i32 %55 to i64
  %57 = getelementptr inbounds i32, ptr %54, i64 %56
  %58 = load i32, ptr %57, align 4, !tbaa !26
  %59 = sext i32 %58 to i64
  %60 = load i64, ptr %12, align 8, !tbaa !31
  %61 = mul i64 %60, %59
  store i64 %61, ptr %12, align 8, !tbaa !31
  %62 = load ptr, ptr %9, align 8, !tbaa !27
  %63 = load i32, ptr %11, align 4, !tbaa !26
  %64 = sext i32 %63 to i64
  %65 = getelementptr inbounds i64, ptr %62, i64 %64
  %66 = load i64, ptr %65, align 8, !tbaa !31
  %67 = load ptr, ptr %8, align 8, !tbaa !71
  %68 = load i32, ptr %11, align 4, !tbaa !26
  %69 = sext i32 %68 to i64
  %70 = getelementptr inbounds i32, ptr %67, i64 %69
  %71 = load i32, ptr %70, align 4, !tbaa !26
  %72 = sext i32 %71 to i64
  %73 = mul i64 %66, %72
  %74 = load ptr, ptr %9, align 8, !tbaa !27
  %75 = load i32, ptr %11, align 4, !tbaa !26
  %76 = sub nsw i32 %75, 1
  %77 = sext i32 %76 to i64
  %78 = getelementptr inbounds i64, ptr %74, i64 %77
  %79 = load i64, ptr %78, align 8, !tbaa !31
  %80 = icmp ult i64 %73, %79
  br i1 %80, label %81, label %82

81:                                               ; preds = %53
  br label %86

82:                                               ; preds = %53
  br label %83

83:                                               ; preds = %82
  %84 = load i32, ptr %11, align 4, !tbaa !26
  %85 = add nsw i32 %84, -1
  store i32 %85, ptr %11, align 4, !tbaa !26
  br label %49, !llvm.loop !87

86:                                               ; preds = %81, %49
  %87 = load i32, ptr %11, align 4, !tbaa !26
  %88 = load i32, ptr %10, align 4, !tbaa !26
  %89 = icmp sle i32 %87, %88
  br i1 %89, label %90, label %99

90:                                               ; preds = %86
  %91 = load i64, ptr %12, align 8, !tbaa !31
  %92 = load i64, ptr %12, align 8, !tbaa !31
  %93 = trunc i64 %92 to i32
  %94 = sext i32 %93 to i64
  %95 = icmp eq i64 %91, %94
  br i1 %95, label %96, label %99

96:                                               ; preds = %90
  %97 = load i32, ptr %6, align 4, !tbaa !26
  %98 = or i32 %97, 16384
  store i32 %98, ptr %5, align 4
  store i32 1, ptr %14, align 4
  br label %102

99:                                               ; preds = %90, %86
  %100 = load i32, ptr %6, align 4, !tbaa !26
  %101 = and i32 %100, -16385
  store i32 %101, ptr %5, align 4
  store i32 1, ptr %14, align 4
  br label %102

102:                                              ; preds = %99, %96
  call void @llvm.lifetime.end.p0(i64 8, ptr %12) #7
  call void @llvm.lifetime.end.p0(i64 4, ptr %11) #7
  call void @llvm.lifetime.end.p0(i64 4, ptr %10) #7
  %103 = load i32, ptr %5, align 4
  ret i32 %103
}

; Function Attrs: mustprogress uwtable
define void @_ZN2cv3Mat20updateContinuityFlagEv(ptr noundef nonnull align 8 dereferenceable(96) %0) #1 align 2 {
  %2 = alloca ptr, align 8
  store ptr %0, ptr %2, align 8, !tbaa !34
  %3 = load ptr, ptr %2, align 8
  %4 = getelementptr inbounds nuw %"class.cv::Mat", ptr %3, i32 0, i32 0
  %5 = load i32, ptr %4, align 8, !tbaa !79
  %6 = getelementptr inbounds nuw %"class.cv::Mat", ptr %3, i32 0, i32 1
  %7 = load i32, ptr %6, align 4, !tbaa !72
  %8 = getelementptr inbounds nuw %"class.cv::Mat", ptr %3, i32 0, i32 10
  %9 = getelementptr inbounds nuw %"struct.cv::MatSize", ptr %8, i32 0, i32 0
  %10 = load ptr, ptr %9, align 8, !tbaa !76
  %11 = getelementptr inbounds nuw %"class.cv::Mat", ptr %3, i32 0, i32 11
  %12 = getelementptr inbounds nuw %"struct.cv::MatStep", ptr %11, i32 0, i32 0
  %13 = load ptr, ptr %12, align 8, !tbaa !75
  %14 = call noundef i32 @_ZN2cv20updateContinuityFlagEiiPKiPKm(i32 noundef %5, i32 noundef %7, ptr noundef %10, ptr noundef %13)
  %15 = getelementptr inbounds nuw %"class.cv::Mat", ptr %3, i32 0, i32 0
  store i32 %14, ptr %15, align 8, !tbaa !79
  ret void
}