; Function Attrs: mustprogress nofree norecurse nosync nounwind memory(read, argmem: readwrite, inaccessiblemem: none) uwtable
define void @_ZN2cv3Mat20updateContinuityFlagEv(ptr noundef nonnull align 8 captures(none) dereferenceable(96) %0) local_unnamed_addr #15 align 2 {
  %2 = load i32, ptr %0, align 8, !tbaa !61
  %3 = getelementptr inbounds nuw i8, ptr %0, i64 4
  %4 = load i32, ptr %3, align 4, !tbaa !53
  %5 = getelementptr inbounds nuw i8, ptr %0, i64 64
  %6 = load ptr, ptr %5, align 8, !tbaa !58
  %7 = getelementptr inbounds nuw i8, ptr %0, i64 72
  %8 = load ptr, ptr %7, align 8, !tbaa !57
  %9 = icmp sgt i32 %4, 0
  br i1 %9, label %.lr.ph.preheader.i, label %._crit_edge.i

.lr.ph.preheader.i:                               ; preds = %1
  %wide.trip.count.i = zext nneg i32 %4 to i64
  br label %.lr.ph.i

.lr.ph.i:                                         ; preds = %13, %.lr.ph.preheader.i
  %indvars.iv.i = phi i64 [ 0, %.lr.ph.preheader.i ], [ %indvars.iv.next.i, %13 ]
  %10 = getelementptr inbounds nuw i32, ptr %6, i64 %indvars.iv.i
  %11 = load i32, ptr %10, align 4, !tbaa !23
  %12 = icmp sgt i32 %11, 1
  br i1 %12, label %._crit_edge.loopexit.split.loop.exit.i, label %13

13:                                               ; preds = %.lr.ph.i
  %indvars.iv.next.i = add nuw nsw i64 %indvars.iv.i, 1
  %exitcond.not.i = icmp eq i64 %indvars.iv.next.i, %wide.trip.count.i
  br i1 %exitcond.not.i, label %._crit_edge.i, label %.lr.ph.i, !llvm.loop !64

._crit_edge.loopexit.split.loop.exit.i:           ; preds = %.lr.ph.i
  %14 = trunc nuw nsw i64 %indvars.iv.i to i32
  br label %._crit_edge.i

._crit_edge.i:                                    ; preds = %13, %._crit_edge.loopexit.split.loop.exit.i, %1
  %storemerge.lcssa.i = phi i32 [ 0, %1 ], [ %14, %._crit_edge.loopexit.split.loop.exit.i ], [ %4, %13 ]
  %15 = add nsw i32 %4, -1
  %.sroa.speculated.i = tail call i32 @llvm.smin.i32(i32 %15, i32 %storemerge.lcssa.i)
  %16 = sext i32 %.sroa.speculated.i to i64
  %17 = getelementptr inbounds i32, ptr %6, i64 %16
  %18 = load i32, ptr %17, align 4, !tbaa !23
  %19 = sext i32 %18 to i64
  %20 = lshr i32 %2, 3
  %21 = and i32 %20, 511
  %22 = add nuw nsw i32 %21, 1
  %23 = zext nneg i32 %22 to i64
  %24 = mul nsw i64 %19, %23
  %25 = icmp sgt i32 %15, %storemerge.lcssa.i
  br i1 %25, label %.lr.ph37.preheader.i, label %_ZN2cv20updateContinuityFlagEiiPKiPKm.exit

.lr.ph37.preheader.i:                             ; preds = %._crit_edge.i
  %26 = sext i32 %15 to i64
  %27 = sext i32 %storemerge.lcssa.i to i64
  br label %.lr.ph37.i

.lr.ph37.i:                                       ; preds = %38, %.lr.ph37.preheader.i
  %indvars.iv45.i = phi i64 [ %26, %.lr.ph37.preheader.i ], [ %indvars.iv.next46.i, %38 ]
  %.035.i = phi i64 [ %24, %.lr.ph37.preheader.i ], [ %31, %38 ]
  %28 = getelementptr inbounds i32, ptr %6, i64 %indvars.iv45.i
  %29 = load i32, ptr %28, align 4, !tbaa !23
  %30 = sext i32 %29 to i64
  %31 = mul i64 %.035.i, %30
  %32 = getelementptr inbounds i64, ptr %8, i64 %indvars.iv45.i
  %33 = load i64, ptr %32, align 8, !tbaa !22
  %34 = mul i64 %33, %30
  %35 = getelementptr i8, ptr %32, i64 -8
  %36 = load i64, ptr %35, align 8, !tbaa !22
  %37 = icmp ult i64 %34, %36
  br i1 %37, label %._crit_edge38.loopexit.split.loop.exit.i, label %38

38:                                               ; preds = %.lr.ph37.i
  %indvars.iv.next46.i = add nsw i64 %indvars.iv45.i, -1
  %39 = icmp sgt i64 %indvars.iv.next46.i, %27
  br i1 %39, label %.lr.ph37.i, label %_ZN2cv20updateContinuityFlagEiiPKiPKm.exit, !llvm.loop !65

._crit_edge38.loopexit.split.loop.exit.i:         ; preds = %.lr.ph37.i
  %40 = trunc nsw i64 %indvars.iv45.i to i32
  br label %_ZN2cv20updateContinuityFlagEiiPKiPKm.exit

_ZN2cv20updateContinuityFlagEiiPKiPKm.exit:       ; preds = %38, %._crit_edge.i, %._crit_edge38.loopexit.split.loop.exit.i
  %.022.lcssa.i = phi i32 [ %15, %._crit_edge.i ], [ %40, %._crit_edge38.loopexit.split.loop.exit.i ], [ %storemerge.lcssa.i, %38 ]
  %.1.i = phi i64 [ %24, %._crit_edge.i ], [ %31, %._crit_edge38.loopexit.split.loop.exit.i ], [ %31, %38 ]
  %.not.i = icmp sle i32 %.022.lcssa.i, %storemerge.lcssa.i
  %41 = add i64 %.1.i, 2147483648
  %42 = icmp ult i64 %41, 4294967296
  %or.cond.i = select i1 %.not.i, i1 %42, i1 false
  %43 = and i32 %2, -16385
  %masksel.i = select i1 %or.cond.i, i32 16384, i32 0
  %.023.i = or disjoint i32 %masksel.i, %43
  store i32 %.023.i, ptr %0, align 8, !tbaa !61
  ret void
}